target datalayout = "e-m:e-p270:32:32-p271:32:32-p272:64:64-i64:64-i128:128-f80:128-n8:16:32:64-S128"
target triple = "x86_64-unknown-linux-gnu"

%struct.sockaddr_in = type { i16, i16, %struct.in_addr, [8 x i8] }
%struct.in_addr = type { i32 }
%struct.NetSocketState = type { %struct.NetClientState, i32, i32, %struct.SocketReadState, i32, %struct.sockaddr_in, ptr, i8, i8 }
%struct.NetClientState = type { ptr, i32, %union.anon.1, ptr, ptr, ptr, ptr, [256 x i8], i8, ptr, i32, i8, i32, i32, i8, i8, i8, %union.anon.2 }
%union.anon.1 = type { %struct.QTailQLink }
%struct.QTailQLink = type { ptr, ptr }
%union.anon.2 = type { %struct.QTailQLink }
%struct.SocketReadState = type { i32, i8, i32, i32, i32, [69632 x i8], ptr }
%union.__CONST_SOCKADDR_ARG = type { ptr }

@.str.1 = private unnamed_addr constant [21 x i8] c"../qemu/net/socket.c\00", align 1
@.str.14 = private unnamed_addr constant [29 x i8] c"can't create datagram socket\00", align 1
@.str.15 = private unnamed_addr constant [37 x i8] c"can't set socket option SO_REUSEADDR\00", align 1
@.str.16 = private unnamed_addr constant [27 x i8] c"can't bind ip=%s to socket\00", align 1
@__func__.net_socket_udp_init = private unnamed_addr constant [20 x i8] c"net_socket_udp_init\00", align 1
@.str.30 = private unnamed_addr constant [18 x i8] c"socket: udp=%s:%d\00", align 1

; Function Attrs: nounwind sspstrong uwtable
define internal i32 @net_socket_udp_init(ptr noundef %peer, ptr noundef %model, ptr noundef %name, ptr noundef %rhost, ptr noundef %lhost, ptr noundef %errp) #0 {
entry:
  %retval = alloca i32, align 4
  %peer.addr = alloca ptr, align 8
  %model.addr = alloca ptr, align 8
  %name.addr = alloca ptr, align 8
  %rhost.addr = alloca ptr, align 8
  %lhost.addr = alloca ptr, align 8
  %errp.addr = alloca ptr, align 8
  %s = alloca ptr, align 8
  %fd = alloca i32, align 4
  %ret = alloca i32, align 4
  %laddr = alloca %struct.sockaddr_in, align 4
  %raddr = alloca %struct.sockaddr_in, align 4
  %agg.tmp = alloca %union.__CONST_SOCKADDR_ARG, align 8
  store ptr %peer, ptr %peer.addr, align 8
  store ptr %model, ptr %model.addr, align 8
  store ptr %name, ptr %name.addr, align 8
  store ptr %rhost, ptr %rhost.addr, align 8
  store ptr %lhost, ptr %lhost.addr, align 8
  store ptr %errp, ptr %errp.addr, align 8
  %0 = load ptr, ptr %lhost.addr, align 8
  %1 = load ptr, ptr %errp.addr, align 8
  %call = call i32 @parse_host_port(ptr noundef %laddr, ptr noundef %0, ptr noundef %1)
  %cmp = icmp slt i32 %call, 0
  br i1 %cmp, label %if.then, label %if.end

if.then:                                          ; preds = %entry
  store i32 -1, ptr %retval, align 4
  br label %return

if.end:                                           ; preds = %entry
  %2 = load ptr, ptr %rhost.addr, align 8
  %3 = load ptr, ptr %errp.addr, align 8
  %call1 = call i32 @parse_host_port(ptr noundef %raddr, ptr noundef %2, ptr noundef %3)
  %cmp2 = icmp slt i32 %call1, 0
  br i1 %cmp2, label %if.then3, label %if.end4

if.then3:                                         ; preds = %if.end
  store i32 -1, ptr %retval, align 4
  br label %return

if.end4:                                          ; preds = %if.end
  %call5 = call i32 @qemu_socket(i32 noundef 2, i32 noundef 2, i32 noundef 0)
  store i32 %call5, ptr %fd, align 4
  %4 = load i32, ptr %fd, align 4
  %cmp6 = icmp slt i32 %4, 0
  br i1 %cmp6, label %if.then7, label %if.end9

if.then7:                                         ; preds = %if.end4
  %5 = load ptr, ptr %errp.addr, align 8
  %call8 = call ptr @__errno_location() #8
  %6 = load i32, ptr %call8, align 4
  call void (ptr, ptr, i32, ptr, i32, ptr, ...) @error_setg_errno_internal(ptr noundef %5, ptr noundef @.str.1, i32 noundef 656, ptr noundef @__func__.net_socket_udp_init, i32 noundef %6, ptr noundef @.str.14)
  store i32 -1, ptr %retval, align 4
  br label %return

if.end9:                                          ; preds = %if.end4
  %7 = load i32, ptr %fd, align 4
  %call10 = call i32 @socket_set_fast_reuse(i32 noundef %7)
  store i32 %call10, ptr %ret, align 4
  %8 = load i32, ptr %ret, align 4
  %cmp11 = icmp slt i32 %8, 0
  br i1 %cmp11, label %if.then12, label %if.end15

if.then12:                                        ; preds = %if.end9
  %9 = load ptr, ptr %errp.addr, align 8
  %call13 = call ptr @__errno_location() #8
  %10 = load i32, ptr %call13, align 4
  call void (ptr, ptr, i32, ptr, i32, ptr, ...) @error_setg_errno_internal(ptr noundef %9, ptr noundef @.str.1, i32 noundef 663, ptr noundef @__func__.net_socket_udp_init, i32 noundef %10, ptr noundef @.str.15)
  %11 = load i32, ptr %fd, align 4
  %call14 = call i32 @close(i32 noundef %11)
  store i32 -1, ptr %retval, align 4
  br label %return

if.end15:                                         ; preds = %if.end9
  %12 = load i32, ptr %fd, align 4
  store ptr %laddr, ptr %agg.tmp, align 8
  %coerce.dive = getelementptr inbounds %union.__CONST_SOCKADDR_ARG, ptr %agg.tmp, i32 0, i32 0
  %13 = load ptr, ptr %coerce.dive, align 8
  %call16 = call i32 @bind(i32 noundef %12, ptr %13, i32 noundef 16) #7
  store i32 %call16, ptr %ret, align 4
  %14 = load i32, ptr %ret, align 4
  %cmp17 = icmp slt i32 %14, 0
  br i1 %cmp17, label %if.then18, label %if.end23

if.then18:                                        ; preds = %if.end15
  %15 = load ptr, ptr %errp.addr, align 8
  %call19 = call ptr @__errno_location() #8
  %16 = load i32, ptr %call19, align 4
  %sin_addr = getelementptr inbounds %struct.sockaddr_in, ptr %laddr, i32 0, i32 2
  %coerce.dive20 = getelementptr inbounds %struct.in_addr, ptr %sin_addr, i32 0, i32 0
  %17 = load i32, ptr %coerce.dive20, align 4
  %call21 = call ptr @inet_ntoa(i32 %17) #7
  call void (ptr, ptr, i32, ptr, i32, ptr, ...) @error_setg_errno_internal(ptr noundef %15, ptr noundef @.str.1, i32 noundef 670, ptr noundef @__func__.net_socket_udp_init, i32 noundef %16, ptr noundef @.str.16, ptr noundef %call21)
  %18 = load i32, ptr %fd, align 4
  %call22 = call i32 @close(i32 noundef %18)
  store i32 -1, ptr %retval, align 4
  br label %return

if.end23:                                         ; preds = %if.end15
  %19 = load i32, ptr %fd, align 4
  call void @qemu_socket_set_nonblock(i32 noundef %19)
  %20 = load ptr, ptr %peer.addr, align 8
  %21 = load ptr, ptr %model.addr, align 8
  %22 = load ptr, ptr %name.addr, align 8
  %23 = load i32, ptr %fd, align 4
  %24 = load ptr, ptr %errp.addr, align 8
  %call24 = call ptr @net_socket_fd_init_dgram(ptr noundef %20, ptr noundef %21, ptr noundef %22, i32 noundef %23, i32 noundef 0, ptr noundef null, ptr noundef %24)
  store ptr %call24, ptr %s, align 8
  %25 = load ptr, ptr %s, align 8
  %tobool = icmp ne ptr %25, null
  br i1 %tobool, label %if.end26, label %if.then25

if.then25:                                        ; preds = %if.end23
  store i32 -1, ptr %retval, align 4
  br label %return

if.end26:                                         ; preds = %if.end23
  %26 = load ptr, ptr %s, align 8
  %dgram_dst = getelementptr inbounds %struct.NetSocketState, ptr %26, i32 0, i32 5
  call void @llvm.memcpy.p0.p0.i64(ptr align 4 %dgram_dst, ptr align 4 %raddr, i64 16, i1 false)
  %27 = load ptr, ptr %s, align 8
  %nc = getelementptr inbounds %struct.NetSocketState, ptr %27, i32 0, i32 0
  %sin_addr27 = getelementptr inbounds %struct.sockaddr_in, ptr %raddr, i32 0, i32 2
  %coerce.dive28 = getelementptr inbounds %struct.in_addr, ptr %sin_addr27, i32 0, i32 0
  %28 = load i32, ptr %coerce.dive28, align 4
  %call29 = call ptr @inet_ntoa(i32 %28) #7
  %sin_port = getelementptr inbounds %struct.sockaddr_in, ptr %raddr, i32 0, i32 1
  %29 = load i16, ptr %sin_port, align 2
  %call30 = call zeroext i16 @ntohs(i16 noundef zeroext %29) #8
  %conv = zext i16 %call30 to i32
  call void (ptr, ptr, ...) @qemu_set_info_str(ptr noundef %nc, ptr noundef @.str.30, ptr noundef %call29, i32 noundef %conv)
  store i32 0, ptr %retval, align 4
  br label %return

return:                                           ; preds = %if.end26, %if.then25, %if.then18, %if.then12, %if.then7, %if.then3, %if.then
  %30 = load i32, ptr %retval, align 4
  ret i32 %30
}