; Function Attrs: nounwind sspstrong uwtable
define internal fastcc range(i32 -1, 1) i32 @net_socket_udp_init(ptr noundef %peer, ptr noundef %name, ptr noundef nonnull %rhost, ptr noundef nonnull %lhost, ptr noundef %errp) unnamed_addr #0 {
entry:
  %laddr = alloca %struct.sockaddr_in, align 4
  %raddr = alloca %struct.sockaddr_in, align 4
  %call = call i32 @parse_host_port(ptr noundef nonnull %laddr, ptr noundef nonnull %lhost, ptr noundef %errp) #8
  %cmp = icmp slt i32 %call, 0
  br i1 %cmp, label %return, label %if.end

if.end:                                           ; preds = %entry
  %call1 = call i32 @parse_host_port(ptr noundef nonnull %raddr, ptr noundef nonnull %rhost, ptr noundef %errp) #8
  %cmp2 = icmp slt i32 %call1, 0
  br i1 %cmp2, label %return, label %if.end4

if.end4:                                          ; preds = %if.end
  %call5 = call i32 @qemu_socket(i32 noundef 2, i32 noundef 2, i32 noundef 0) #8
  %cmp6 = icmp slt i32 %call5, 0
  br i1 %cmp6, label %if.then7, label %if.end9

if.then7:                                         ; preds = %if.end4
  %call8 = tail call ptr @__errno_location() #9
  %0 = load i32, ptr %call8, align 4
  call void (ptr, ptr, i32, ptr, i32, ptr, ...) @error_setg_errno_internal(ptr noundef %errp, ptr noundef nonnull @.str.1, i32 noundef 656, ptr noundef nonnull @__func__.net_socket_udp_init, i32 noundef %0, ptr noundef nonnull @.str.14) #8
  br label %return

if.end9:                                          ; preds = %if.end4
  %call10 = call i32 @socket_set_fast_reuse(i32 noundef %call5) #8
  %cmp11 = icmp slt i32 %call10, 0
  br i1 %cmp11, label %if.then12, label %if.end15

if.then12:                                        ; preds = %if.end9
  %call13 = tail call ptr @__errno_location() #9
  %1 = load i32, ptr %call13, align 4
  call void (ptr, ptr, i32, ptr, i32, ptr, ...) @error_setg_errno_internal(ptr noundef %errp, ptr noundef nonnull @.str.1, i32 noundef 663, ptr noundef nonnull @__func__.net_socket_udp_init, i32 noundef %1, ptr noundef nonnull @.str.15) #8
  %call14 = call i32 @close(i32 noundef %call5) #8
  br label %return

if.end15:                                         ; preds = %if.end9
  %call16 = call i32 @bind(i32 noundef %call5, ptr nonnull %laddr, i32 noundef 16) #8
  %cmp17 = icmp slt i32 %call16, 0
  br i1 %cmp17, label %if.then18, label %if.end23

if.then18:                                        ; preds = %if.end15
  %call19 = tail call ptr @__errno_location() #9
  %2 = load i32, ptr %call19, align 4
  %sin_addr = getelementptr inbounds nuw i8, ptr %laddr, i64 4
  %3 = load i32, ptr %sin_addr, align 4
  %call21 = call ptr @inet_ntoa(i32 %3) #8
  call void (ptr, ptr, i32, ptr, i32, ptr, ...) @error_setg_errno_internal(ptr noundef %errp, ptr noundef nonnull @.str.1, i32 noundef 670, ptr noundef nonnull @__func__.net_socket_udp_init, i32 noundef %2, ptr noundef nonnull @.str.16, ptr noundef %call21) #8
  %call22 = call i32 @close(i32 noundef %call5) #8
  br label %return

if.end23:                                         ; preds = %if.end15
  call void @qemu_socket_set_nonblock(i32 noundef %call5) #8
  %call24 = call fastcc ptr @net_socket_fd_init_dgram(ptr noundef %peer, ptr noundef %name, i32 noundef %call5, i32 noundef 0, ptr noundef null, ptr noundef %errp)
  %tobool.not = icmp eq ptr %call24, null
  br i1 %tobool.not, label %return, label %if.end26

if.end26:                                         ; preds = %if.end23
  %dgram_dst = getelementptr inbounds nuw i8, ptr %call24, i64 70052
  call void @llvm.memcpy.p0.p0.i64(ptr noundef nonnull align 4 dereferenceable(16) %dgram_dst, ptr noundef nonnull align 4 dereferenceable(16) %raddr, i64 16, i1 false)
  %sin_addr27 = getelementptr inbounds nuw i8, ptr %raddr, i64 4
  %4 = load i32, ptr %sin_addr27, align 4
  %call29 = call ptr @inet_ntoa(i32 %4) #8
  %sin_port = getelementptr inbounds nuw i8, ptr %raddr, i64 2
  %5 = load i16, ptr %sin_port, align 2
  %call30 = call zeroext i16 @ntohs(i16 noundef zeroext %5) #9
  %conv = zext i16 %call30 to i32
  call void (ptr, ptr, ...) @qemu_set_info_str(ptr noundef nonnull %call24, ptr noundef nonnull @.str.30, ptr noundef %call29, i32 noundef %conv) #8
  br label %return

return:                                           ; preds = %if.end23, %if.end, %entry, %if.end26, %if.then18, %if.then12, %if.then7
  %retval.0 = phi i32 [ -1, %if.then7 ], [ -1, %if.then12 ], [ -1, %if.then18 ], [ 0, %if.end26 ], [ -1, %entry ], [ -1, %if.end ], [ -1, %if.end23 ]
  ret i32 %retval.0
}